target datalayout = "e-m:e-p270:32:32-p271:32:32-p272:64:64-i64:64-i128:128-f80:128-n8:16:32:64-S128"
target triple = "x86_64-pc-linux-gnu"

@.str.6 = private unnamed_addr constant [8 x i8] c"Success\00", align 1
@.str.7 = private unnamed_addr constant [14 x i8] c"General error\00", align 1
@.str.8 = private unnamed_addr constant [11 x i8] c"Zero cards\00", align 1
@.str.9 = private unnamed_addr constant [32 x i8] c"Target exceeds number of tricks\00", align 1
@.str.10 = private unnamed_addr constant [17 x i8] c"Cards duplicated\00", align 1
@.str.11 = private unnamed_addr constant [23 x i8] c"Target is less than -1\00", align 1
@.str.12 = private unnamed_addr constant [25 x i8] c"Target is higher than 13\00", align 1
@.str.13 = private unnamed_addr constant [35 x i8] c"Solutions parameter is less than 1\00", align 1
@.str.14 = private unnamed_addr constant [37 x i8] c"Solutions parameter is higher than 3\00", align 1
@.str.15 = private unnamed_addr constant [15 x i8] c"Too many cards\00", align 1
@.str.16 = private unnamed_addr constant [52 x i8] c"currentTrickSuit or currentTrickRank has wrong data\00", align 1
@.str.17 = private unnamed_addr constant [35 x i8] c"Played card also remains in a hand\00", align 1
@.str.18 = private unnamed_addr constant [42 x i8] c"Wrong number of remaining cards in a hand\00", align 1
@.str.19 = private unnamed_addr constant [33 x i8] c"Thread index is not 0 .. maximum\00", align 1
@.str.20 = private unnamed_addr constant [30 x i8] c"Mode parameter is less than 0\00", align 1
@.str.21 = private unnamed_addr constant [32 x i8] c"Mode parameter is higher than 2\00", align 1
@.str.22 = private unnamed_addr constant [23 x i8] c"Trump is not in 0 .. 4\00", align 1
@.str.23 = private unnamed_addr constant [23 x i8] c"First is not in 0 .. 2\00", align 1
@.str.24 = private unnamed_addr constant [24 x i8] c"AnalysePlay input error\00", align 1
@.str.25 = private unnamed_addr constant [17 x i8] c"PBN string error\00", align 1
@.str.26 = private unnamed_addr constant [26 x i8] c"Too many boards requested\00", align 1
@.str.27 = private unnamed_addr constant [25 x i8] c"Could not create threads\00", align 1
@.str.28 = private unnamed_addr constant [43 x i8] c"Something failed waiting for thread to end\00", align 1
@.str.29 = private unnamed_addr constant [35 x i8] c"Multi-threading system not present\00", align 1
@.str.30 = private unnamed_addr constant [42 x i8] c"Denomination filter vector has no entries\00", align 1
@.str.31 = private unnamed_addr constant [29 x i8] c"Too many DD tables requested\00", align 1
@.str.32 = private unnamed_addr constant [26 x i8] c"Chunk size is less than 1\00", align 1
@.str.33 = private unnamed_addr constant [21 x i8] c"Not a DDS error code\00", align 1

; Function Attrs: mustprogress nounwind uwtable
define void @ErrorMessage(i32 noundef %0, ptr noundef %1) #5 {
  %3 = alloca i32, align 4
  %4 = alloca ptr, align 8
  store i32 %0, ptr %3, align 4
  store ptr %1, ptr %4, align 8
  %5 = load i32, ptr %3, align 4
  switch i32 %5, label %87 [
    i32 1, label %6
    i32 -1, label %9
    i32 -2, label %12
    i32 -3, label %15
    i32 -4, label %18
    i32 -5, label %21
    i32 -7, label %24
    i32 -8, label %27
    i32 -9, label %30
    i32 -10, label %33
    i32 -12, label %36
    i32 -13, label %39
    i32 -14, label %42
    i32 -15, label %45
    i32 -16, label %48
    i32 -17, label %51
    i32 -18, label %54
    i32 -19, label %57
    i32 -98, label %60
    i32 -99, label %63
    i32 -101, label %66
    i32 -102, label %69
    i32 -103, label %72
    i32 -104, label %75
    i32 -201, label %78
    i32 -202, label %81
    i32 -301, label %84
  ]

6:                                                ; preds = %2
  %7 = load ptr, ptr %4, align 8
  %8 = call ptr @strcpy(ptr noundef %7, ptr noundef @.str.6) #3
  br label %90

9:                                                ; preds = %2
  %10 = load ptr, ptr %4, align 8
  %11 = call ptr @strcpy(ptr noundef %10, ptr noundef @.str.7) #3
  br label %90

12:                                               ; preds = %2
  %13 = load ptr, ptr %4, align 8
  %14 = call ptr @strcpy(ptr noundef %13, ptr noundef @.str.8) #3
  br label %90

15:                                               ; preds = %2
  %16 = load ptr, ptr %4, align 8
  %17 = call ptr @strcpy(ptr noundef %16, ptr noundef @.str.9) #3
  br label %90

18:                                               ; preds = %2
  %19 = load ptr, ptr %4, align 8
  %20 = call ptr @strcpy(ptr noundef %19, ptr noundef @.str.10) #3
  br label %90

21:                                               ; preds = %2
  %22 = load ptr, ptr %4, align 8
  %23 = call ptr @strcpy(ptr noundef %22, ptr noundef @.str.11) #3
  br label %90

24:                                               ; preds = %2
  %25 = load ptr, ptr %4, align 8
  %26 = call ptr @strcpy(ptr noundef %25, ptr noundef @.str.12) #3
  br label %90

27:                                               ; preds = %2
  %28 = load ptr, ptr %4, align 8
  %29 = call ptr @strcpy(ptr noundef %28, ptr noundef @.str.13) #3
  br label %90

30:                                               ; preds = %2
  %31 = load ptr, ptr %4, align 8
  %32 = call ptr @strcpy(ptr noundef %31, ptr noundef @.str.14) #3
  br label %90

33:                                               ; preds = %2
  %34 = load ptr, ptr %4, align 8
  %35 = call ptr @strcpy(ptr noundef %34, ptr noundef @.str.15) #3
  br label %90

36:                                               ; preds = %2
  %37 = load ptr, ptr %4, align 8
  %38 = call ptr @strcpy(ptr noundef %37, ptr noundef @.str.16) #3
  br label %90

39:                                               ; preds = %2
  %40 = load ptr, ptr %4, align 8
  %41 = call ptr @strcpy(ptr noundef %40, ptr noundef @.str.17) #3
  br label %90

42:                                               ; preds = %2
  %43 = load ptr, ptr %4, align 8
  %44 = call ptr @strcpy(ptr noundef %43, ptr noundef @.str.18) #3
  br label %90

45:                                               ; preds = %2
  %46 = load ptr, ptr %4, align 8
  %47 = call ptr @strcpy(ptr noundef %46, ptr noundef @.str.19) #3
  br label %90

48:                                               ; preds = %2
  %49 = load ptr, ptr %4, align 8
  %50 = call ptr @strcpy(ptr noundef %49, ptr noundef @.str.20) #3
  br label %90

51:                                               ; preds = %2
  %52 = load ptr, ptr %4, align 8
  %53 = call ptr @strcpy(ptr noundef %52, ptr noundef @.str.21) #3
  br label %90

54:                                               ; preds = %2
  %55 = load ptr, ptr %4, align 8
  %56 = call ptr @strcpy(ptr noundef %55, ptr noundef @.str.22) #3
  br label %90

57:                                               ; preds = %2
  %58 = load ptr, ptr %4, align 8
  %59 = call ptr @strcpy(ptr noundef %58, ptr noundef @.str.23) #3
  br label %90

60:                                               ; preds = %2
  %61 = load ptr, ptr %4, align 8
  %62 = call ptr @strcpy(ptr noundef %61, ptr noundef @.str.24) #3
  br label %90

63:                                               ; preds = %2
  %64 = load ptr, ptr %4, align 8
  %65 = call ptr @strcpy(ptr noundef %64, ptr noundef @.str.25) #3
  br label %90

66:                                               ; preds = %2
  %67 = load ptr, ptr %4, align 8
  %68 = call ptr @strcpy(ptr noundef %67, ptr noundef @.str.26) #3
  br label %90

69:                                               ; preds = %2
  %70 = load ptr, ptr %4, align 8
  %71 = call ptr @strcpy(ptr noundef %70, ptr noundef @.str.27) #3
  br label %90

72:                                               ; preds = %2
  %73 = load ptr, ptr %4, align 8
  %74 = call ptr @strcpy(ptr noundef %73, ptr noundef @.str.28) #3
  br label %90

75:                                               ; preds = %2
  %76 = load ptr, ptr %4, align 8
  %77 = call ptr @strcpy(ptr noundef %76, ptr noundef @.str.29) #3
  br label %90

78:                                               ; preds = %2
  %79 = load ptr, ptr %4, align 8
  %80 = call ptr @strcpy(ptr noundef %79, ptr noundef @.str.30) #3
  br label %90

81:                                               ; preds = %2
  %82 = load ptr, ptr %4, align 8
  %83 = call ptr @strcpy(ptr noundef %82, ptr noundef @.str.31) #3
  br label %90

84:                                               ; preds = %2
  %85 = load ptr, ptr %4, align 8
  %86 = call ptr @strcpy(ptr noundef %85, ptr noundef @.str.32) #3
  br label %90

87:                                               ; preds = %2
  %88 = load ptr, ptr %4, align 8
  %89 = call ptr @strcpy(ptr noundef %88, ptr noundef @.str.33) #3
  br label %90

90:                                               ; preds = %87, %84, %81, %78, %75, %72, %69, %66, %63, %60, %57, %54, %51, %48, %45, %42, %39, %36, %33, %30, %27, %24, %21, %18, %15, %12, %9, %6
  ret void
}