; Function Attrs: mustprogress nofree norecurse nosync nounwind willreturn memory(argmem: readwrite) uwtable
define void @ErrorMessage(i32 noundef %0, ptr noundef writeonly captures(none) initializes((0, 8)) %1) local_unnamed_addr #11 {
  switch i32 %0, label %30 [
    i32 1, label %3
    i32 -1, label %4
    i32 -2, label %5
    i32 -3, label %6
    i32 -4, label %7
    i32 -5, label %8
    i32 -7, label %9
    i32 -8, label %10
    i32 -9, label %11
    i32 -10, label %12
    i32 -12, label %13
    i32 -13, label %14
    i32 -14, label %15
    i32 -15, label %16
    i32 -16, label %17
    i32 -17, label %18
    i32 -18, label %19
    i32 -19, label %20
    i32 -98, label %21
    i32 -99, label %22
    i32 -101, label %23
    i32 -102, label %24
    i32 -103, label %25
    i32 -104, label %26
    i32 -201, label %27
    i32 -202, label %28
    i32 -301, label %29
  ]

3:                                                ; preds = %2
  store i64 32496501618079059, ptr %1, align 1
  br label %31

4:                                                ; preds = %2
  tail call void @llvm.memcpy.p0.p0.i64(ptr noundef nonnull align 1 dereferenceable(14) %1, ptr noundef nonnull align 1 dereferenceable(14) @.str.7, i64 14, i1 false) #17
  br label %31

5:                                                ; preds = %2
  tail call void @llvm.memcpy.p0.p0.i64(ptr noundef nonnull align 1 dereferenceable(11) %1, ptr noundef nonnull align 1 dereferenceable(11) @.str.8, i64 11, i1 false) #17
  br label %31

6:                                                ; preds = %2
  tail call void @llvm.memcpy.p0.p0.i64(ptr noundef nonnull align 1 dereferenceable(32) %1, ptr noundef nonnull align 1 dereferenceable(32) @.str.9, i64 32, i1 false) #17
  br label %31

7:                                                ; preds = %2
  tail call void @llvm.memcpy.p0.p0.i64(ptr noundef nonnull align 1 dereferenceable(17) %1, ptr noundef nonnull align 1 dereferenceable(17) @.str.10, i64 17, i1 false) #17
  br label %31

8:                                                ; preds = %2
  tail call void @llvm.memcpy.p0.p0.i64(ptr noundef nonnull align 1 dereferenceable(23) %1, ptr noundef nonnull align 1 dereferenceable(23) @.str.11, i64 23, i1 false) #17
  br label %31

9:                                                ; preds = %2
  tail call void @llvm.memcpy.p0.p0.i64(ptr noundef nonnull align 1 dereferenceable(25) %1, ptr noundef nonnull align 1 dereferenceable(25) @.str.12, i64 25, i1 false) #17
  br label %31

10:                                               ; preds = %2
  tail call void @llvm.memcpy.p0.p0.i64(ptr noundef nonnull align 1 dereferenceable(35) %1, ptr noundef nonnull align 1 dereferenceable(35) @.str.13, i64 35, i1 false) #17
  br label %31

11:                                               ; preds = %2
  tail call void @llvm.memcpy.p0.p0.i64(ptr noundef nonnull align 1 dereferenceable(37) %1, ptr noundef nonnull align 1 dereferenceable(37) @.str.14, i64 37, i1 false) #17
  br label %31

12:                                               ; preds = %2
  tail call void @llvm.memcpy.p0.p0.i64(ptr noundef nonnull align 1 dereferenceable(15) %1, ptr noundef nonnull align 1 dereferenceable(15) @.str.15, i64 15, i1 false) #17
  br label %31

13:                                               ; preds = %2
  tail call void @llvm.memcpy.p0.p0.i64(ptr noundef nonnull align 1 dereferenceable(52) %1, ptr noundef nonnull align 1 dereferenceable(52) @.str.16, i64 52, i1 false) #17
  br label %31

14:                                               ; preds = %2
  tail call void @llvm.memcpy.p0.p0.i64(ptr noundef nonnull align 1 dereferenceable(35) %1, ptr noundef nonnull align 1 dereferenceable(35) @.str.17, i64 35, i1 false) #17
  br label %31

15:                                               ; preds = %2
  tail call void @llvm.memcpy.p0.p0.i64(ptr noundef nonnull align 1 dereferenceable(42) %1, ptr noundef nonnull align 1 dereferenceable(42) @.str.18, i64 42, i1 false) #17
  br label %31

16:                                               ; preds = %2
  tail call void @llvm.memcpy.p0.p0.i64(ptr noundef nonnull align 1 dereferenceable(33) %1, ptr noundef nonnull align 1 dereferenceable(33) @.str.19, i64 33, i1 false) #17
  br label %31

17:                                               ; preds = %2
  tail call void @llvm.memcpy.p0.p0.i64(ptr noundef nonnull align 1 dereferenceable(30) %1, ptr noundef nonnull align 1 dereferenceable(30) @.str.20, i64 30, i1 false) #17
  br label %31

18:                                               ; preds = %2
  tail call void @llvm.memcpy.p0.p0.i64(ptr noundef nonnull align 1 dereferenceable(32) %1, ptr noundef nonnull align 1 dereferenceable(32) @.str.21, i64 32, i1 false) #17
  br label %31

19:                                               ; preds = %2
  tail call void @llvm.memcpy.p0.p0.i64(ptr noundef nonnull align 1 dereferenceable(23) %1, ptr noundef nonnull align 1 dereferenceable(23) @.str.22, i64 23, i1 false) #17
  br label %31

20:                                               ; preds = %2
  tail call void @llvm.memcpy.p0.p0.i64(ptr noundef nonnull align 1 dereferenceable(23) %1, ptr noundef nonnull align 1 dereferenceable(23) @.str.23, i64 23, i1 false) #17
  br label %31

21:                                               ; preds = %2
  tail call void @llvm.memcpy.p0.p0.i64(ptr noundef nonnull align 1 dereferenceable(24) %1, ptr noundef nonnull align 1 dereferenceable(24) @.str.24, i64 24, i1 false) #17
  br label %31

22:                                               ; preds = %2
  tail call void @llvm.memcpy.p0.p0.i64(ptr noundef nonnull align 1 dereferenceable(17) %1, ptr noundef nonnull align 1 dereferenceable(17) @.str.25, i64 17, i1 false) #17
  br label %31

23:                                               ; preds = %2
  tail call void @llvm.memcpy.p0.p0.i64(ptr noundef nonnull align 1 dereferenceable(26) %1, ptr noundef nonnull align 1 dereferenceable(26) @.str.26, i64 26, i1 false) #17
  br label %31

24:                                               ; preds = %2
  tail call void @llvm.memcpy.p0.p0.i64(ptr noundef nonnull align 1 dereferenceable(25) %1, ptr noundef nonnull align 1 dereferenceable(25) @.str.27, i64 25, i1 false) #17
  br label %31

25:                                               ; preds = %2
  tail call void @llvm.memcpy.p0.p0.i64(ptr noundef nonnull align 1 dereferenceable(43) %1, ptr noundef nonnull align 1 dereferenceable(43) @.str.28, i64 43, i1 false) #17
  br label %31

26:                                               ; preds = %2
  tail call void @llvm.memcpy.p0.p0.i64(ptr noundef nonnull align 1 dereferenceable(35) %1, ptr noundef nonnull align 1 dereferenceable(35) @.str.29, i64 35, i1 false) #17
  br label %31

27:                                               ; preds = %2
  tail call void @llvm.memcpy.p0.p0.i64(ptr noundef nonnull align 1 dereferenceable(42) %1, ptr noundef nonnull align 1 dereferenceable(42) @.str.30, i64 42, i1 false) #17
  br label %31

28:                                               ; preds = %2
  tail call void @llvm.memcpy.p0.p0.i64(ptr noundef nonnull align 1 dereferenceable(29) %1, ptr noundef nonnull align 1 dereferenceable(29) @.str.31, i64 29, i1 false) #17
  br label %31

29:                                               ; preds = %2
  tail call void @llvm.memcpy.p0.p0.i64(ptr noundef nonnull align 1 dereferenceable(26) %1, ptr noundef nonnull align 1 dereferenceable(26) @.str.32, i64 26, i1 false) #17
  br label %31

30:                                               ; preds = %2
  tail call void @llvm.memcpy.p0.p0.i64(ptr noundef nonnull align 1 dereferenceable(21) %1, ptr noundef nonnull align 1 dereferenceable(21) @.str.33, i64 21, i1 false) #17
  br label %31

31:                                               ; preds = %30, %29, %28, %27, %26, %25, %24, %23, %22, %21, %20, %19, %18, %17, %16, %15, %14, %13, %12, %11, %10, %9, %8, %7, %6, %5, %4, %3
  ret void
}